(dp1
S'output'
p2
S"<type 'exceptions.ImportError'> cannot import name Recaptcha"
p3
sS'layer'
p4
S'C:\\Workspace\\TempSpace\\PythonWeb\\web2py\\applications\\places\\models\\1_db.py'
p5
sS'code'
p6
S'<code object <module> at 00000000053D69B0, file "C:\\Workspace\\TempSpace\\PythonWeb\\web2py\\applications\\places\\models\\1_db.py", line 3>'
p7
sS'snapshot'
p8
(dp9
S'exception'
p10
(dp11
S'__getslice__'
p12
S"<method-wrapper '__getslice__' of exceptions.ImportError object>"
p13
sS'__str__'
p14
S"<method-wrapper '__str__' of exceptions.ImportError object>"
p15
sS'__reduce__'
p16
S'<built-in method __reduce__ of exceptions.ImportError object>'
p17
sS'__dict__'
p18
S'{}'
p19
sS'message'
p20
S"'cannot import name Recaptcha'"
p21
sS'__sizeof__'
p22
S'<built-in method __sizeof__ of exceptions.ImportError object>'
p23
sS'__init__'
p24
S"<method-wrapper '__init__' of exceptions.ImportError object>"
p25
sS'__setattr__'
p26
S"<method-wrapper '__setattr__' of exceptions.ImportError object>"
p27
sS'__reduce_ex__'
p28
S'<built-in method __reduce_ex__ of exceptions.ImportError object>'
p29
sS'__new__'
p30
S'<built-in method __new__ of type object>'
p31
sS'__format__'
p32
S'<built-in method __format__ of exceptions.ImportError object>'
p33
sS'__class__'
p34
S"<type 'exceptions.ImportError'>"
p35
sS'__doc__'
p36
S'"Import can\'t find module, or can\'t find name in module."'
p37
sS'__getitem__'
p38
S"<method-wrapper '__getitem__' of exceptions.ImportError object>"
p39
sS'__setstate__'
p40
S'<built-in method __setstate__ of exceptions.ImportError object>'
p41
sS'__getattribute__'
p42
S"<method-wrapper '__getattribute__' of exceptions.ImportError object>"
p43
sS'args'
p44
S"('cannot import name Recaptcha',)"
p45
sS'__subclasshook__'
p46
S'<built-in method __subclasshook__ of type object>'
p47
sS'__unicode__'
p48
S'<built-in method __unicode__ of exceptions.ImportError object>'
p49
sS'__delattr__'
p50
S"<method-wrapper '__delattr__' of exceptions.ImportError object>"
p51
sS'__repr__'
p52
S"<method-wrapper '__repr__' of exceptions.ImportError object>"
p53
sS'__hash__'
p54
S"<method-wrapper '__hash__' of exceptions.ImportError object>"
p55
ssS'evalue'
p56
S'cannot import name Recaptcha'
p57
sS'request'
p58
cgluon.html
XML_unpickle
p59
(S's\x80g\x00\x00<div><table><tr><td style="font-weight:bold;vertical-align:top;">ajax</td><td style="vertical-align:top;">:</td><td><div>True</div></td></tr><tr><td style="font-weight:bold;vertical-align:top;">application</td><td style="vertical-align:top;">:</td><td><div>places</div></td></tr><tr><td style="font-weight:bold;vertical-align:top;">args</td><td style="vertical-align:top;">:</td><td><div><table></table></div></td></tr><tr><td style="font-weight:bold;vertical-align:top;">cid</td><td style="vertical-align:top;">:</td><td><div>c543400160807</div></td></tr><tr><td style="font-weight:bold;vertical-align:top;">client</td><td style="vertical-align:top;">:</td><td><div>127.0.0.1</div></td></tr><tr><td style="font-weight:bold;vertical-align:top;">controller</td><td style="vertical-align:top;">:</td><td><div>appadmin</div></td></tr><tr><td style="font-weight:bold;vertical-align:top;">cookies</td><td style="vertical-align:top;">:</td><td><div><table><tr><td style="font-weight:bold;vertical-align:top;">session_id_admin</td><td style="vertical-align:top;">:</td><td><div>127.0.0.1-3ba567ff-b1f4-43a7-9d1a-19b87bdf1703<table><tr><td style="font-weight:bold;vertical-align:top;">comment</td><td style="vertical-align:top;">:</td><td><div></div></td></tr><tr><td style="font-weight:bold;vertical-align:top;">domain</td><td style="vertical-align:top;">:</td><td><div></div></td></tr><tr><td style="font-weight:bold;vertical-align:top;">expires</td><td style="vertical-align:top;">:</td><td><div></div></td></tr><tr><td style="font-weight:bold;vertical-align:top;">httponly</td><td style="vertical-align:top;">:</td><td><div></div></td></tr><tr><td style="font-weight:bold;vertical-align:top;">max-age</td><td style="vertical-align:top;">:</td><td><div></div></td></tr><tr><td style="font-weight:bold;vertical-align:top;">path</td><td style="vertical-align:top;">:</td><td><div></div></td></tr><tr><td style="font-weight:bold;vertical-align:top;">samesite</td><td style="vertical-align:top;">:</td><td><div></div></td></tr><tr><td style="font-weight:bold;vertical-align:top;">secure</td><td style="vertical-align:top;">:</td><td><div></div></td></tr><tr><td style="font-weight:bold;vertical-align:top;">version</td><td style="vertical-align:top;">:</td><td><div></div></td></tr></table></div></td></tr><tr><td style="font-weight:bold;vertical-align:top;">session_id_places</td><td style="vertical-align:top;">:</td><td><div>127.0.0.1-b231f35b-52b8-4993-9fea-c5d549a49ca4<table><tr><td style="font-weight:bold;vertical-align:top;">comment</td><td style="vertical-align:top;">:</td><td><div></div></td></tr><tr><td style="font-weight:bold;vertical-align:top;">domain</td><td style="vertical-align:top;">:</td><td><div></div></td></tr><tr><td style="font-weight:bold;vertical-align:top;">expires</td><td style="vertical-align:top;">:</td><td><div></div></td></tr><tr><td style="font-weight:bold;vertical-align:top;">httponly</td><td style="vertical-align:top;">:</td><td><div></div></td></tr><tr><td style="font-weight:bold;vertical-align:top;">max-age</td><td style="vertical-align:top;">:</td><td><div></div></td></tr><tr><td style="font-weight:bold;vertical-align:top;">path</td><td style="vertical-align:top;">:</td><td><div></div></td></tr><tr><td style="font-weight:bold;vertical-align:top;">samesite</td><td style="vertical-align:top;">:</td><td><div></div></td></tr><tr><td style="font-weight:bold;vertical-align:top;">secure</td><td style="vertical-align:top;">:</td><td><div></div></td></tr><tr><td style="font-weight:bold;vertical-align:top;">version</td><td style="vertical-align:top;">:</td><td><div></div></td></tr></table></div></td></tr><tr><td style="font-weight:bold;vertical-align:top;">session_id_welcome</td><td style="vertical-align:top;">:</td><td><div>127.0.0.1-fc950c9c-ae30-475f-aabe-6240e6ec72b1<table><tr><td style="font-weight:bold;vertical-align:top;">comment</td><td style="vertical-align:top;">:</td><td><div></div></td></tr><tr><td style="font-weight:bold;vertical-align:top;">domain</td><td style="vertical-align:top;">:</td><td><div></div></td></tr><tr><td style="font-weight:bold;vertical-align:top;">expires</td><td style="vertical-align:top;">:</td><td><div></div></td></tr><tr><td style="font-weight:bold;vertical-align:top;">httponly</td><td style="vertical-align:top;">:</td><td><div></div></td></tr><tr><td style="font-weight:bold;vertical-align:top;">max-age</td><td style="vertical-align:top;">:</td><td><div></div></td></tr><tr><td style="font-weight:bold;vertical-align:top;">path</td><td style="vertical-align:top;">:</td><td><div></div></td></tr><tr><td style="font-weight:bold;vertical-align:top;">samesite</td><td style="vertical-align:top;">:</td><td><div></div></td></tr><tr><td style="font-weight:bold;vertical-align:top;">secure</td><td style="vertical-align:top;">:</td><td><div></div></td></tr><tr><td style="font-weight:bold;vertical-align:top;">version</td><td style="vertical-align:top;">:</td><td><div></div></td></tr></table></div></td></tr></table></div></td></tr><tr><td style="font-weight:bold;vertical-align:top;">env</td><td style="vertical-align:top;">:</td><td><div><table><tr><td style="font-weight:bold;vertical-align:top;">CONTENT_TYPE</td><td style="vertical-align:top;">:</td><td><div>application/x-www-form-urlencoded; charset=UTF-8</div></td></tr><tr><td style="font-weight:bold;vertical-align:top;">HTTP_ACCEPT</td><td style="vertical-align:top;">:</td><td><div>*/*</div></td></tr><tr><td style="font-weight:bold;vertical-align:top;">HTTP_ACCEPT_ENCODING</td><td style="vertical-align:top;">:</td><td><div>gzip, deflate, br</div></td></tr><tr><td style="font-weight:bold;vertical-align:top;">HTTP_ACCEPT_LANGUAGE</td><td style="vertical-align:top;">:</td><td><div>zh-CN,zh;q=0.9,zh-TW;q=0.8,en-US;q=0.7,en;q=0.6</div></td></tr><tr><td style="font-weight:bold;vertical-align:top;">HTTP_CONNECTION</td><td style="vertical-align:top;">:</td><td><div>keep-alive</div></td></tr><tr><td style="font-weight:bold;vertical-align:top;">HTTP_CONTENT_TYPE</td><td style="vertical-align:top;">:</td><td><div>application/x-www-form-urlencoded; charset=UTF-8</div></td></tr><tr><td style="font-weight:bold;vertical-align:top;">HTTP_COOKIE</td><td style="vertical-align:top;">:</td><td><div>session_id_admin=127.0.0.1-3ba567ff-b1f4-43a7-9d1a-19b87bdf1703; session_id_places=127.0.0.1-b231f35b-52b8-4993-9fea-c5d549a49ca4; session_id_welcome=127.0.0.1-fc950c9c-ae30-475f-aabe-6240e6ec72b1</div></td></tr><tr><td style="font-weight:bold;vertical-align:top;">HTTP_HOST</td><td style="vertical-align:top;">:</td><td><div>127.0.0.1:8000</div></td></tr><tr><td style="font-weight:bold;vertical-align:top;">HTTP_REFERER</td><td style="vertical-align:top;">:</td><td><div>http://127.0.0.1:8000/admin/default/edit/places/models/1_db.py</div></td></tr><tr><td style="font-weight:bold;vertical-align:top;">HTTP_SEC_CH_UA</td><td style="vertical-align:top;">:</td><td><div>&quot;Google Chrome&quot;;v=&quot;87&quot;, &quot; Not;A Brand&quot;;v=&quot;99&quot;, &quot;Chromium&quot;;v=&quot;87&quot;</div></td></tr><tr><td style="font-weight:bold;vertical-align:top;">HTTP_SEC_CH_UA_MOBILE</td><td style="vertical-align:top;">:</td><td><div>?0</div></td></tr><tr><td style="font-weight:bold;vertical-align:top;">HTTP_SEC_FETCH_DEST</td><td style="vertical-align:top;">:</td><td><div>empty</div></td></tr><tr><td style="font-weight:bold;vertical-align:top;">HTTP_SEC_FETCH_MODE</td><td style="vertical-align:top;">:</td><td><div>cors</div></td></tr><tr><td style="font-weight:bold;vertical-align:top;">HTTP_SEC_FETCH_SITE</td><td style="vertical-align:top;">:</td><td><div>same-origin</div></td></tr><tr><td style="font-weight:bold;vertical-align:top;">HTTP_USER_AGENT</td><td style="vertical-align:top;">:</td><td><div>Mozilla/5.0 (Windows NT 10.0; Win64; x64) AppleWebKit/537.36 (KHTML, like Gecko) Chrome/87.0.4280.141 Safari/537.36</div></td></tr><tr><td style="font-weight:bold;vertical-align:top;">HTTP_WEB2PY_COMPONENT_ELEMENT</td><td style="vertical-align:top;">:</td><td><div>c543400160807</div></td></tr><tr><td style="font-weight:bold;vertical-align:top;">HTTP_WEB2PY_COMPONENT_LOCATION</td><td style="vertical-align:top;">:</td><td><div>http://127.0.0.1:8000/admin/default/edit/places/models/1_db.py</div></td></tr><tr><td style="font-weight:bold;vertical-align:top;">HTTP_X_REQUESTED_WITH</td><td style="vertical-align:top;">:</td><td><div>XMLHttpRequest</div></td></tr><tr><td style="font-weight:bold;vertical-align:top;">PATH_INFO</td><td style="vertical-align:top;">:</td><td><div>/places/appadmin/hooks</div></td></tr><tr><td style="font-weight:bold;vertical-align:top;">QUERY_STRING</td><td style="vertical-align:top;">:</td><td><div></div></td></tr><tr><td style="font-weight:bold;vertical-align:top;">REMOTE_ADDR</td><td style="vertical-align:top;">:</td><td><div>127.0.0.1</div></td></tr><tr><td style="font-weight:bold;vertical-align:top;">REMOTE_PORT</td><td style="vertical-align:top;">:</td><td><div>49696</div></td></tr><tr><td style="font-weight:bold;vertical-align:top;">REQUEST_METHOD</td><td style="vertical-align:top;">:</td><td><div>GET</div></td></tr><tr><td style="font-weight:bold;vertical-align:top;">SCRIPT_NAME</td><td style="vertical-align:top;">:</td><td><div></div></td></tr><tr><td style="font-weight:bold;vertical-align:top;">SERVER_NAME</td><td style="vertical-align:top;">:</td><td><div>Xiaotuan</div></td></tr><tr><td style="font-weight:bold;vertical-align:top;">SERVER_PORT</td><td style="vertical-align:top;">:</td><td><div>8000</div></td></tr><tr><td style="font-weight:bold;vertical-align:top;">SERVER_PROTOCOL</td><td style="vertical-align:top;">:</td><td><div>HTTP/1.1</div></td></tr><tr><td style="font-weight:bold;vertical-align:top;">SERVER_SOFTWARE</td><td style="vertical-align:top;">:</td><td><div>Rocket 1.2.6</div></td></tr><tr><td style="font-weight:bold;vertical-align:top;">app_folders</td><td style="vertical-align:top;">:</td><td><div>set([&#x27;C:\\\\Workspace\\\\TempSpace\\\\PythonWeb\\\\web2py\\\\applications\\\\admin&#x27;, &#x27;C:\\\\Workspace\\\\TempSpace\\\\PythonWeb\\\\web2py\\\\applications\\\\places&#x27;, &#x27;C:\\\\Workspace\\\\TempSpace\\\\PythonWeb\\\\web2py\\\\applications\\\\welcome&#x27;])</div></td></tr><tr><td style="font-weight:bold;vertical-align:top;">applications_parent</td><td style="vertical-align:top;">:</td><td><div>C:\\Workspace\\TempSpace\\PythonWeb\\web2py</div></td></tr><tr><td style="font-weight:bold;vertical-align:top;">cmd_options</td><td style="vertical-align:top;">:</td><td><div>Namespace(add_options=False, args=[], bpython=False, ca_cert=None, config=None, cron_job=False, cron_run=False, cron_threads=None, crontabs=[], errors_to_console=False, fake_migrate=False, folder=&#x27;C:\\\\Workspace\\\\TempSpace\\\\PythonWeb\\\\web2py&#x27;, force_migrate=False, gae=None, import_models=False, interfaces=[], ip=&#x27;127.0.0.1&#x27;, log_filename=&#x27;httpserver.log&#x27;, log_level=30, max_threads=None, min_threads=None, no_banner=False, no_gui=False, password=&#x27;******&#x27;, pid_filename=&#x27;httpserver.pid&#x27;, plain=False, port=8000, profiler_dir=None, quiet=False, request_queue_size=5, run=None, run_doctests=None, run_system_tests=False, schedulers=[], server_cert=None, server_key=None, server_name=&#x27;Xiaotuan&#x27;, shell=None, shutdown_timeout=None, socket_timeout=5, soft_cron=False, taskbar=False, timeout=10, verbose=False, with_coverage=False, with_cron=False, with_scheduler=False)</div></td></tr><tr><td style="font-weight:bold;vertical-align:top;">content_type</td><td style="vertical-align:top;">:</td><td><div>application/x-www-form-urlencoded; charset=UTF-8</div></td></tr><tr><td style="font-weight:bold;vertical-align:top;">db_sessions</td><td style="vertical-align:top;">:</td><td><div>set([])</div></td></tr><tr><td style="font-weight:bold;vertical-align:top;">debugging</td><td style="vertical-align:top;">:</td><td><div>False</div></td></tr><tr><td style="font-weight:bold;vertical-align:top;">gluon_parent</td><td style="vertical-align:top;">:</td><td><div>C:\\Workspace\\TempSpace\\PythonWeb\\web2py</div></td></tr><tr><td style="font-weight:bold;vertical-align:top;">http_accept</td><td style="vertical-align:top;">:</td><td><div>*/*</div></td></tr><tr><td style="font-weight:bold;vertical-align:top;">http_accept_encoding</td><td style="vertical-align:top;">:</td><td><div>gzip, deflate, br</div></td></tr><tr><td style="font-weight:bold;vertical-align:top;">http_accept_language</td><td style="vertical-align:top;">:</td><td><div>zh-CN,zh;q=0.9,zh-TW;q=0.8,en-US;q=0.7,en;q=0.6</div></td></tr><tr><td style="font-weight:bold;vertical-align:top;">http_connection</td><td style="vertical-align:top;">:</td><td><div>keep-alive</div></td></tr><tr><td style="font-weight:bold;vertical-align:top;">http_content_type</td><td style="vertical-align:top;">:</td><td><div>application/x-www-form-urlencoded; charset=UTF-8</div></td></tr><tr><td style="font-weight:bold;vertical-align:top;">http_cookie</td><td style="vertical-align:top;">:</td><td><div>session_id_admin=127.0.0.1-3ba567ff-b1f4-43a7-9d1a-19b87bdf1703; session_id_places=127.0.0.1-b231f35b-52b8-4993-9fea-c5d549a49ca4; session_id_welcome=127.0.0.1-fc950c9c-ae30-475f-aabe-6240e6ec72b1</div></td></tr><tr><td style="font-weight:bold;vertical-align:top;">http_host</td><td style="vertical-align:top;">:</td><td><div>127.0.0.1:8000</div></td></tr><tr><td style="font-weight:bold;vertical-align:top;">http_referer</td><td style="vertical-align:top;">:</td><td><div>http://127.0.0.1:8000/admin/default/edit/places/models/1_db.py</div></td></tr><tr><td style="font-weight:bold;vertical-align:top;">http_sec_ch_ua</td><td style="vertical-align:top;">:</td><td><div>&quot;Google Chrome&quot;;v=&quot;87&quot;, &quot; Not;A Brand&quot;;v=&quot;99&quot;, &quot;Chromium&quot;;v=&quot;87&quot;</div></td></tr><tr><td style="font-weight:bold;vertical-align:top;">http_sec_ch_ua_mobile</td><td style="vertical-align:top;">:</td><td><div>?0</div></td></tr><tr><td style="font-weight:bold;vertical-align:top;">http_sec_fetch_dest</td><td style="vertical-align:top;">:</td><td><div>empty</div></td></tr><tr><td style="font-weight:bold;vertical-align:top;">http_sec_fetch_mode</td><td style="vertical-align:top;">:</td><td><div>cors</div></td></tr><tr><td style="font-weight:bold;vertical-align:top;">http_sec_fetch_site</td><td style="vertical-align:top;">:</td><td><div>same-origin</div></td></tr><tr><td style="font-weight:bold;vertical-align:top;">http_user_agent</td><td style="vertical-align:top;">:</td><td><div>Mozilla/5.0 (Windows NT 10.0; Win64; x64) AppleWebKit/537.36 (KHTML, like Gecko) Chrome/87.0.4280.141 Safari/537.36</div></td></tr><tr><td style="font-weight:bold;vertical-align:top;">http_web2py_component_element</td><td style="vertical-align:top;">:</td><td><div>c543400160807</div></td></tr><tr><td style="font-weight:bold;vertical-align:top;">http_web2py_component_location</td><td style="vertical-align:top;">:</td><td><div>http://127.0.0.1:8000/admin/default/edit/places/models/1_db.py</div></td></tr><tr><td style="font-weight:bold;vertical-align:top;">http_x_requested_with</td><td style="vertical-align:top;">:</td><td><div>XMLHttpRequest</div></td></tr><tr><td style="font-weight:bold;vertical-align:top;">is_jython</td><td style="vertical-align:top;">:</td><td><div>False</div></td></tr><tr><td style="font-weight:bold;vertical-align:top;">is_py2</td><td style="vertical-align:top;">:</td><td><div>True</div></td></tr><tr><td style="font-weight:bold;vertical-align:top;">is_pypy</td><td style="vertical-align:top;">:</td><td><div>False</div></td></tr><tr><td style="font-weight:bold;vertical-align:top;">is_source</td><td style="vertical-align:top;">:</td><td><div>True</div></td></tr><tr><td style="font-weight:bold;vertical-align:top;">local_hosts</td><td style="vertical-align:top;">:</td><td><div><table><tr><td><div>192.168.31.241</div></td></tr><tr><td><div>::ffff:127.0.0.1</div></td></tr><tr><td><div>::1</div></td></tr><tr><td><div>fe80::8d84:3447:4560:ceaf%12</div></td></tr><tr><td><div>fe80::50de:870f:c7f8:3b0%14</div></td></tr><tr><td><div>Xiaotuan</div></td></tr><tr><td><div>127.0.0.1</div></td></tr><tr><td><div>192.168.56.1</div></td></tr></table></div></td></tr><tr><td style="font-weight:bold;vertical-align:top;">path_info</td><td style="vertical-align:top;">:</td><td><div>/places/appadmin/hooks</div></td></tr><tr><td style="font-weight:bold;vertical-align:top;">query_string</td><td style="vertical-align:top;">:</td><td><div></div></td></tr><tr><td style="font-weight:bold;vertical-align:top;">remote_addr</td><td style="vertical-align:top;">:</td><td><div>127.0.0.1</div></td></tr><tr><td style="font-weight:bold;vertical-align:top;">remote_port</td><td style="vertical-align:top;">:</td><td><div>49696</div></td></tr><tr><td style="font-weight:bold;vertical-align:top;">request_method</td><td style="vertical-align:top;">:</td><td><div>GET</div></td></tr><tr><td style="font-weight:bold;vertical-align:top;">request_uri</td><td style="vertical-align:top;">:</td><td><div>/places/appadmin/hooks</div></td></tr><tr><td style="font-weight:bold;vertical-align:top;">script_name</td><td style="vertical-align:top;">:</td><td><div></div></td></tr><tr><td style="font-weight:bold;vertical-align:top;">server_name</td><td style="vertical-align:top;">:</td><td><div>Xiaotuan</div></td></tr><tr><td style="font-weight:bold;vertical-align:top;">server_port</td><td style="vertical-align:top;">:</td><td><div>8000</div></td></tr><tr><td style="font-weight:bold;vertical-align:top;">server_protocol</td><td style="vertical-align:top;">:</td><td><div>HTTP/1.1</div></td></tr><tr><td style="font-weight:bold;vertical-align:top;">server_software</td><td style="vertical-align:top;">:</td><td><div>Rocket 1.2.6</div></td></tr><tr><td style="font-weight:bold;vertical-align:top;">web2py_path</td><td style="vertical-align:top;">:</td><td><div>C:\\Workspace\\TempSpace\\PythonWeb\\web2py</div></td></tr><tr><td style="font-weight:bold;vertical-align:top;">web2py_version</td><td style="vertical-align:top;">:</td><td><div>2.21.1-stable+timestamp.2020.11.28.04.10.44</div></td></tr><tr><td style="font-weight:bold;vertical-align:top;">wsgi.errors</td><td style="vertical-align:top;">:</td><td><div>&lt;open file &#x27;&lt;stderr&gt;&#x27;, mode &#x27;w&#x27; at 0x000000000337F1E0&gt;</div></td></tr><tr><td style="font-weight:bold;vertical-align:top;">wsgi.file_wrapper</td><td style="vertical-align:top;">:</td><td><div>&lt;class wsgiref.util.FileWrapper at 0x00000000048A05E8&gt;</div></td></tr><tr><td style="font-weight:bold;vertical-align:top;">wsgi.input</td><td style="vertical-align:top;">:</td><td><div>&lt;socket._fileobject object at 0x0000000010414B48&gt;</div></td></tr><tr><td style="font-weight:bold;vertical-align:top;">wsgi.multiprocess</td><td style="vertical-align:top;">:</td><td><div>False</div></td></tr><tr><td style="font-weight:bold;vertical-align:top;">wsgi.multithread</td><td style="vertical-align:top;">:</td><td><div>True</div></td></tr><tr><td style="font-weight:bold;vertical-align:top;">wsgi.run_once</td><td style="vertical-align:top;">:</td><td><div>False</div></td></tr><tr><td style="font-weight:bold;vertical-align:top;">wsgi.url_scheme</td><td style="vertical-align:top;">:</td><td><div>http</div></td></tr><tr><td style="font-weight:bold;vertical-align:top;">wsgi.version</td><td style="vertical-align:top;">:</td><td><div><table><tr><td><div>1</div></td></tr><tr><td><div>0</div></td></tr></table></div></td></tr><tr><td style="font-weight:bold;vertical-align:top;">wsgi_errors</td><td style="vertical-align:top;">:</td><td><div>&lt;open file &#x27;&lt;stderr&gt;&#x27;, mode &#x27;w&#x27; at 0x000000000337F1E0&gt;</div></td></tr><tr><td style="font-weight:bold;vertical-align:top;">wsgi_file_wrapper</td><td style="vertical-align:top;">:</td><td><div>&lt;class wsgiref.util.FileWrapper at 0x00000000048A05E8&gt;</div></td></tr><tr><td style="font-weight:bold;vertical-align:top;">wsgi_input</td><td style="vertical-align:top;">:</td><td><div>&lt;socket._fileobject object at 0x0000000010414B48&gt;</div></td></tr><tr><td style="font-weight:bold;vertical-align:top;">wsgi_multiprocess</td><td style="vertical-align:top;">:</td><td><div>False</div></td></tr><tr><td style="font-weight:bold;vertical-align:top;">wsgi_multithread</td><td style="vertical-align:top;">:</td><td><div>True</div></td></tr><tr><td style="font-weight:bold;vertical-align:top;">wsgi_run_once</td><td style="vertical-align:top;">:</td><td><div>False</div></td></tr><tr><td style="font-weight:bold;vertical-align:top;">wsgi_url_scheme</td><td style="vertical-align:top;">:</td><td><div>http</div></td></tr><tr><td style="font-weight:bold;vertical-align:top;">wsgi_version</td><td style="vertical-align:top;">:</td><td><div><table><tr><td><div>1</div></td></tr><tr><td><div>0</div></td></tr></table></div></td></tr></table></div></td></tr><tr><td style="font-weight:bold;vertical-align:top;">extension</td><td style="vertical-align:top;">:</td><td><div>html</div></td></tr><tr><td style="font-weight:bold;vertical-align:top;">folder</td><td style="vertical-align:top;">:</td><td><div>C:\\Workspace\\TempSpace\\PythonWeb\\web2py\\applications\\places</div></td></tr><tr><td style="font-weight:bold;vertical-align:top;">function</td><td style="vertical-align:top;">:</td><td><div>hooks</div></td></tr><tr><td style="font-weight:bold;vertical-align:top;">global_settings</td><td style="vertical-align:top;">:</td><td><div><table><tr><td style="font-weight:bold;vertical-align:top;">app_folders</td><td style="vertical-align:top;">:</td><td><div>set([&#x27;C:\\\\Workspace\\\\TempSpace\\\\PythonWeb\\\\web2py\\\\applications\\\\admin&#x27;, &#x27;C:\\\\Workspace\\\\TempSpace\\\\PythonWeb\\\\web2py\\\\applications\\\\places&#x27;, &#x27;C:\\\\Workspace\\\\TempSpace\\\\PythonWeb\\\\web2py\\\\applications\\\\welcome&#x27;])</div></td></tr><tr><td style="font-weight:bold;vertical-align:top;">applications_parent</td><td style="vertical-align:top;">:</td><td><div>C:\\Workspace\\TempSpace\\PythonWeb\\web2py</div></td></tr><tr><td style="font-weight:bold;vertical-align:top;">cmd_options</td><td style="vertical-align:top;">:</td><td><div>Namespace(add_options=False, args=[], bpython=False, ca_cert=None, config=None, cron_job=False, cron_run=False, cron_threads=None, crontabs=[], errors_to_console=False, fake_migrate=False, folder=&#x27;C:\\\\Workspace\\\\TempSpace\\\\PythonWeb\\\\web2py&#x27;, force_migrate=False, gae=None, import_models=False, interfaces=[], ip=&#x27;127.0.0.1&#x27;, log_filename=&#x27;httpserver.log&#x27;, log_level=30, max_threads=None, min_threads=None, no_banner=False, no_gui=False, password=&#x27;******&#x27;, pid_filename=&#x27;httpserver.pid&#x27;, plain=False, port=8000, profiler_dir=None, quiet=False, request_queue_size=5, run=None, run_doctests=None, run_system_tests=False, schedulers=[], server_cert=None, server_key=None, server_name=&#x27;Xiaotuan&#x27;, shell=None, shutdown_timeout=None, socket_timeout=5, soft_cron=False, taskbar=False, timeout=10, verbose=False, with_coverage=False, with_cron=False, with_scheduler=False)</div></td></tr><tr><td style="font-weight:bold;vertical-align:top;">db_sessions</td><td style="vertical-align:top;">:</td><td><div>set([])</div></td></tr><tr><td style="font-weight:bold;vertical-align:top;">debugging</td><td style="vertical-align:top;">:</td><td><div>False</div></td></tr><tr><td style="font-weight:bold;vertical-align:top;">gluon_parent</td><td style="vertical-align:top;">:</td><td><div>C:\\Workspace\\TempSpace\\PythonWeb\\web2py</div></td></tr><tr><td style="font-weight:bold;vertical-align:top;">is_jython</td><td style="vertical-align:top;">:</td><td><div>False</div></td></tr><tr><td style="font-weight:bold;vertical-align:top;">is_py2</td><td style="vertical-align:top;">:</td><td><div>True</div></td></tr><tr><td style="font-weight:bold;vertical-align:top;">is_pypy</td><td style="vertical-align:top;">:</td><td><div>False</div></td></tr><tr><td style="font-weight:bold;vertical-align:top;">is_source</td><td style="vertical-align:top;">:</td><td><div>True</div></td></tr><tr><td style="font-weight:bold;vertical-align:top;">local_hosts</td><td style="vertical-align:top;">:</td><td><div><table><tr><td><div>192.168.31.241</div></td></tr><tr><td><div>::ffff:127.0.0.1</div></td></tr><tr><td><div>::1</div></td></tr><tr><td><div>fe80::8d84:3447:4560:ceaf%12</div></td></tr><tr><td><div>fe80::50de:870f:c7f8:3b0%14</div></td></tr><tr><td><div>Xiaotuan</div></td></tr><tr><td><div>127.0.0.1</div></td></tr><tr><td><div>192.168.56.1</div></td></tr></table></div></td></tr><tr><td style="font-weight:bold;vertical-align:top;">web2py_version</td><td style="vertical-align:top;">:</td><td><div>2.21.1-stable+timestamp.2020.11.28.04.10.44</div></td></tr></table></div></td></tr><tr><td style="font-weight:bold;vertical-align:top;">is_https</td><td style="vertical-align:top;">:</td><td><div>False</div></td></tr><tr><td style="font-weight:bold;vertical-align:top;">is_local</td><td style="vertical-align:top;">:</td><td><div>True</div></td></tr><tr><td style="font-weight:bold;vertical-align:top;">is_restful</td><td style="vertical-align:top;">:</td><td><div>False</div></td></tr><tr><td style="font-weight:bold;vertical-align:top;">is_scheduler</td><td style="vertical-align:top;">:</td><td><div>False</div></td></tr><tr><td style="font-weight:bold;vertical-align:top;">is_shell</td><td style="vertical-align:top;">:</td><td><div>False</div></td></tr><tr><td style="font-weight:bold;vertical-align:top;">method</td><td style="vertical-align:top;">:</td><td><div>GET</div></td></tr><tr><td style="font-weight:bold;vertical-align:top;">now</td><td style="vertical-align:top;">:</td><td><div>datetime.datetime(2021, 1, 20, 15, 41, 37, 493000)</div></td></tr><tr><td style="font-weight:bold;vertical-align:top;">raw_args</td><td style="vertical-align:top;">:</td><td><div></div></td></tr><tr><td style="font-weight:bold;vertical-align:top;">raw_extension</td><td style="vertical-align:top;">:</td><td><div>None</div></td></tr><tr><td style="font-weight:bold;vertical-align:top;">url</td><td style="vertical-align:top;">:</td><td><div>/places/appadmin/hooks</div></td></tr><tr><td style="font-weight:bold;vertical-align:top;">utcnow</td><td style="vertical-align:top;">:</td><td><div>datetime.datetime(2021, 1, 20, 7, 41, 37, 493000)</div></td></tr><tr><td style="font-weight:bold;vertical-align:top;">wsgi</td><td style="vertical-align:top;">:</td><td><div>&lt;gluon.main.LazyWSGI object at 0x0000000010A92608&gt;</div></td></tr></table></div>'
tRp60
sS'frames'
p61
(lp62
(dp63
S'file'
p64
S'C:\\Workspace\\TempSpace\\PythonWeb\\web2py\\gluon\\restricted.py'
p65
sS'dump'
p66
(dp67
S'environment'
p68
S"{'A': <class 'gluon.html.A'>, 'ANY_OF': <class 'pydal.validators.ANY_OF'>, 'ASSIGNJS': <function ASSIGNJS>, 'Auth': <class 'gluon.tools.Auth'>, 'B': <class 'gluon.html.B'>, 'BEAUTIFY': <class 'gluon.html.BEAUTIFY'>, 'BODY': <class 'gluon.html.BODY'>, 'BR': <class 'gluon.html.BR'>, 'BUTTON': <class 'gluon.html.BUTTON'>, 'CAT': <class 'gluon.html.CAT'>, ...}"
p69
sS'ccode'
p70
S'<code object <module> at 00000000053D69B0, file ...b2py\\applications\\places\\models\\1_db.py", line 3>'
p71
ssS'lnum'
p72
I219
sS'lines'
p73
(dp74
I214
S'    if environment is None:'
p75
sI215
S'        environment = {}'
p76
sI216
S"    environment['__file__'] = layer"
p77
sI217
S"    environment['__name__'] = '__restricted__'"
p78
sI218
S'    try:'
p79
sI219
S'        exec(ccode, environment)'
p80
sI220
S'    except HTTP:'
p81
sI221
S'        raise'
p82
sI222
S'    except RestrictedError:'
p83
sI223
S'        # do not encapsulate (obfuscate) the original RestrictedError'
p84
ssS'call'
p85
S'(ccode=<code object <module> at 00000000053D69B0, file ...b2py\\applications\\places\\models\\1_db.py", line 3>, environment={\'A\': <class \'gluon.html.A\'>, \'ANY_OF\': <class \'pydal.validators.ANY_OF\'>, \'ASSIGNJS\': <function ASSIGNJS>, \'Auth\': <class \'gluon.tools.Auth\'>, \'B\': <class \'gluon.html.B\'>, \'BEAUTIFY\': <class \'gluon.html.BEAUTIFY\'>, \'BODY\': <class \'gluon.html.BODY\'>, \'BR\': <class \'gluon.html.BR\'>, \'BUTTON\': <class \'gluon.html.BUTTON\'>, \'CAT\': <class \'gluon.html.CAT\'>, ...}, layer=r\'C:\\Workspace\\TempSpace\\PythonWeb\\web2py\\applications\\places\\models\\1_db.py\', scode=<code object <module> at 00000000053D69B0, file ...b2py\\applications\\places\\models\\1_db.py", line 3>)'
p86
sS'func'
p87
S'restricted'
p88
sa(dp89
g64
S'C:\\Workspace\\TempSpace\\PythonWeb\\web2py\\applications\\places\\models\\1_db.py'
p90
sg66
(dp91
S'prettydate'
p92
S'undefined'
p93
sS'Service'
p94
S"<class 'gluon.tools.Service'>"
p95
sS'Recaptcha'
p96
g93
sS'Crud'
p97
S"<class 'gluon.tools.Crud'>"
p98
sS'Auth'
p99
S"<class 'gluon.tools.Auth'>"
p100
sS'gluon'
p101
g93
sS'PluginManager'
p102
S"<class 'gluon.tools.PluginManager'>"
p103
ssg72
I28
sg73
(dp104
I32
S''
sI23
S'    ## from google.appengine.api.memcache import Client'
p105
sI24
S'    ## session.connect(request, response, db = MEMDB(Client()))'
p106
sI25
S''
sI26
S"response.generic_patterns = ['*'] if request.is_local else []"
p107
sI27
S''
sI28
S'from gluon.tools import Auth, Crud, Service, PluginManager, Recaptcha, prettydate'
p108
sI29
S'auth = Auth(db)'
p109
sI30
S''
sI31
S'crud, service, plugins = Crud(db), Service(), PluginManager()'
p110
ssg85
S'()'
p111
sg87
S'<module>'
p112
sasS'pyver'
p113
S'Python 2.7.17: C:\\Python27\\python.exe (prefix: C:\\Python27)'
p114
sS'session'
p115
g59
(S's\x1a\x00\x00\x00<div><table></table></div>'
tRp116
sS'etype'
p117
S"<type 'exceptions.ImportError'>"
p118
sS'date'
p119
S'Wed Jan 20 15:41:37 2021'
p120
sS'response'
p121
g59
(S's\x98\x16\x00\x00<div><table><tr><td style="font-weight:bold;vertical-align:top;">body</td><td style="vertical-align:top;">:</td><td><div>&lt;cStringIO.StringO object at 0x0000000010A8B530&gt;</div></td></tr><tr><td style="font-weight:bold;vertical-align:top;">cookies</td><td style="vertical-align:top;">:</td><td><div><table><tr><td style="font-weight:bold;vertical-align:top;">session_id_places</td><td style="vertical-align:top;">:</td><td><div>127.0.0.1-75b65dc6-970a-4afb-961a-49982c5bc09f<table><tr><td style="font-weight:bold;vertical-align:top;">comment</td><td style="vertical-align:top;">:</td><td><div></div></td></tr><tr><td style="font-weight:bold;vertical-align:top;">domain</td><td style="vertical-align:top;">:</td><td><div></div></td></tr><tr><td style="font-weight:bold;vertical-align:top;">expires</td><td style="vertical-align:top;">:</td><td><div></div></td></tr><tr><td style="font-weight:bold;vertical-align:top;">httponly</td><td style="vertical-align:top;">:</td><td><div></div></td></tr><tr><td style="font-weight:bold;vertical-align:top;">max-age</td><td style="vertical-align:top;">:</td><td><div></div></td></tr><tr><td style="font-weight:bold;vertical-align:top;">path</td><td style="vertical-align:top;">:</td><td><div>/</div></td></tr><tr><td style="font-weight:bold;vertical-align:top;">samesite</td><td style="vertical-align:top;">:</td><td><div></div></td></tr><tr><td style="font-weight:bold;vertical-align:top;">secure</td><td style="vertical-align:top;">:</td><td><div></div></td></tr><tr><td style="font-weight:bold;vertical-align:top;">version</td><td style="vertical-align:top;">:</td><td><div></div></td></tr></table></div></td></tr></table></div></td></tr><tr><td style="font-weight:bold;vertical-align:top;">delimiters</td><td style="vertical-align:top;">:</td><td><div><table><tr><td><div>{{</div></td></tr><tr><td><div>}}</div></td></tr></table></div></td></tr><tr><td style="font-weight:bold;vertical-align:top;">files</td><td style="vertical-align:top;">:</td><td><div><table></table></div></td></tr><tr><td style="font-weight:bold;vertical-align:top;">flash</td><td style="vertical-align:top;">:</td><td><div></div></td></tr><tr><td style="font-weight:bold;vertical-align:top;">form_label_separator</td><td style="vertical-align:top;">:</td><td><div>: </div></td></tr><tr><td style="font-weight:bold;vertical-align:top;">formstyle</td><td style="vertical-align:top;">:</td><td><div>table3cols</div></td></tr><tr><td style="font-weight:bold;vertical-align:top;">generic_patterns</td><td style="vertical-align:top;">:</td><td><div><table><tr><td><div>*</div></td></tr></table></div></td></tr><tr><td style="font-weight:bold;vertical-align:top;">headers</td><td style="vertical-align:top;">:</td><td><div><table><tr><td style="font-weight:bold;vertical-align:top;">X-Powered-By</td><td style="vertical-align:top;">:</td><td><div>web2py</div></td></tr></table></div></td></tr><tr><td style="font-weight:bold;vertical-align:top;">menu</td><td style="vertical-align:top;">:</td><td><div><table></table></div></td></tr><tr><td style="font-weight:bold;vertical-align:top;">meta</td><td style="vertical-align:top;">:</td><td><div><table></table></div></td></tr><tr><td style="font-weight:bold;vertical-align:top;">models_to_run</td><td style="vertical-align:top;">:</td><td><div><table><tr><td><div>^\\w+\\.py$</div></td></tr><tr><td><div>^appadmin/\\w+\\.py$</div></td></tr><tr><td><div>^appadmin/hooks/\\w+\\.py$</div></td></tr></table></div></td></tr><tr><td style="font-weight:bold;vertical-align:top;">postprocessing</td><td style="vertical-align:top;">:</td><td><div><table></table></div></td></tr><tr><td style="font-weight:bold;vertical-align:top;">session_client</td><td style="vertical-align:top;">:</td><td><div>127.0.0.1</div></td></tr><tr><td style="font-weight:bold;vertical-align:top;">session_cookie_compression_level</td><td style="vertical-align:top;">:</td><td><div>None</div></td></tr><tr><td style="font-weight:bold;vertical-align:top;">session_cookie_expires</td><td style="vertical-align:top;">:</td><td><div>None</div></td></tr><tr><td style="font-weight:bold;vertical-align:top;">session_data_name</td><td style="vertical-align:top;">:</td><td><div>session_data_places</div></td></tr><tr><td style="font-weight:bold;vertical-align:top;">session_file</td><td style="vertical-align:top;">:</td><td><div>None</div></td></tr><tr><td style="font-weight:bold;vertical-align:top;">session_filename</td><td style="vertical-align:top;">:</td><td><div>C:\\Workspace\\TempSpace\\PythonWeb\\web2py\\applications\\places\\sessions\\127.0.0.1-75b65dc6-970a-4afb-961a-49982c5bc09f</div></td></tr><tr><td style="font-weight:bold;vertical-align:top;">session_hash</td><td style="vertical-align:top;">:</td><td><div>c0762cbf4baf7f9af97c051e7fcb8083</div></td></tr><tr><td style="font-weight:bold;vertical-align:top;">session_id</td><td style="vertical-align:top;">:</td><td><div>True</div></td></tr><tr><td style="font-weight:bold;vertical-align:top;">session_id_name</td><td style="vertical-align:top;">:</td><td><div>session_id_places</div></td></tr><tr><td style="font-weight:bold;vertical-align:top;">session_masterapp</td><td style="vertical-align:top;">:</td><td><div>places</div></td></tr><tr><td style="font-weight:bold;vertical-align:top;">session_new</td><td style="vertical-align:top;">:</td><td><div>True</div></td></tr><tr><td style="font-weight:bold;vertical-align:top;">session_storage_type</td><td style="vertical-align:top;">:</td><td><div>cookie</div></td></tr><tr><td style="font-weight:bold;vertical-align:top;">status</td><td style="vertical-align:top;">:</td><td><div>200</div></td></tr><tr><td style="font-weight:bold;vertical-align:top;">view</td><td style="vertical-align:top;">:</td><td><div>appadmin/hooks.html</div></td></tr></table></div>'
tRp122
sS'locals'
p123
(dp124
S'Service'
p125
S"<class 'gluon.tools.Service'>"
p126
sS'PY2'
p127
S'True'
p128
sS'OBJECT'
p129
S"<class 'gluon.html.OBJECT'>"
p130
sS'SQLDB'
p131
S"<class 'pydal.base.DAL'>"
p132
sg115
S'<Storage {}>'
p133
sS'LINK'
p134
S"<class 'gluon.html.LINK'>"
p135
sS'BR'
p136
S"<class 'gluon.html.BR'>"
p137
sS'local_import'
p138
S'<function <lambda>>'
p139
sS'OPTGROUP'
p140
S"<class 'gluon.html.OPTGROUP'>"
p141
sS'LI'
p142
S"<class 'gluon.html.LI'>"
p143
sS'PRE'
p144
S"<class 'gluon.html.PRE'>"
p145
sS'IS_INT_IN_RANGE'
p146
S"<class 'pydal.validators.IS_INT_IN_RANGE'>"
p147
sS'to_bytes'
p148
S'<function to_bytes>'
p149
sS'IS_LOWER'
p150
S"<class 'pydal.validators.IS_LOWER'>"
p151
sS'IS_STRONG'
p152
S"<class 'pydal.validators.IS_STRONG'>"
p153
sS'cache'
p154
S'<gluon.cache.Cache object>'
p155
sS'IS_IN_DB'
p156
S"<class 'pydal.validators.IS_IN_DB'>"
p157
sS'TAG'
p158
S'<gluon.html.__TAG__ object>'
p159
sS'SQLField'
p160
S"<class 'pydal.objects.Field'>"
p161
sS'BODY'
p162
S"<class 'gluon.html.BODY'>"
p163
sS'IS_DATE_IN_RANGE'
p164
S"<class 'pydal.validators.IS_DATE_IN_RANGE'>"
p165
sS'TH'
p166
S"<class 'gluon.html.TH'>"
p167
sS'URL'
p168
S'<function URL>'
p169
sS'__file__'
p170
S"r'C:\\Workspace\\TempSpace\\PythonWeb\\web2py\\applications\\places\\models\\1_db.py'"
p171
sS'db'
p172
S'<DAL uri="sqlite://storage.sqlite">'
p173
sS'P'
S"<class 'gluon.html.P'>"
p174
sS'T'
S'<gluon.languages.TranslatorFactory object>'
p175
sS'iteritems'
p176
S'<function <lambda>>'
p177
sS'XHTML'
p178
S"<class 'gluon.html.XHTML'>"
p179
sS'ON'
p180
g128
sS'OL'
p181
S"<class 'gluon.html.OL'>"
p182
sS'TEXTAREA'
p183
S"<class 'gluon.html.TEXTAREA'>"
p184
sS'MENU'
p185
S"<class 'gluon.html.MENU'>"
p186
sS'common'
p187
S"<module 'applications.places.modules.common' from 'applications\\places\\modules\\common.pyc'>"
p188
sS'LOAD'
p189
S'<function LOAD>'
p190
sS'CODE'
p191
S"<class 'gluon.html.CODE'>"
p192
sS'HTTP'
p193
S"<class 'gluon.http.HTTP'>"
p194
sS'HR'
p195
S"<class 'gluon.html.HR'>"
p196
sS'IS_DATETIME'
p197
S"<class 'pydal.validators.IS_DATETIME'>"
p198
sS'reduce'
p199
S'<built-in function reduce>'
p200
sg58
S"<Storage {'function': 'hooks', 'cookies': <Simpl... True, 'is_https': False, 'client': '127.0.0.1'}>"
p201
sS'LABEL'
p202
S"<class 'gluon.html.LABEL'>"
p203
sS'CLEANUP'
p204
S"<class 'pydal.validators.CLEANUP'>"
p205
sS'SELECT'
p206
S"<class 'gluon.html.SELECT'>"
p207
sS'CENTER'
p208
S"<class 'gluon.html.CENTER'>"
p209
sS'Crud'
p210
S"<class 'gluon.tools.Crud'>"
p211
sS'Auth'
p212
S"<class 'gluon.tools.Auth'>"
p213
sS'__builtins__'
p214
S"{'ArithmeticError': <type 'exceptions.ArithmeticError'>, 'AssertionError': <type 'exceptions.AssertionError'>, 'AttributeError': <type 'exceptions.AttributeError'>, 'BaseException': <type 'exceptions.BaseException'>, 'BufferError': <type 'exceptions.BufferError'>, 'BytesWarning': <type 'exceptions.BytesWarning'>, 'DeprecationWarning': <type 'exceptions.DeprecationWarning'>, 'EOFError': <type 'exceptions.EOFError'>, 'Ellipsis': Ellipsis, 'EnvironmentError': <type 'exceptions.EnvironmentError'>, ...}"
p215
sS'HTML'
p216
S"<class 'gluon.html.HTML'>"
p217
sS'SQLFORM'
p218
S"<class 'gluon.sqlhtml.SQLFORM'>"
p219
sS'EM'
p220
S"<class 'gluon.html.EM'>"
p221
sS'redirect'
p222
S'<function redirect>'
p223
sS'FIELDSET'
p224
S"<class 'gluon.html.FIELDSET'>"
p225
sS'IS_EQUAL_TO'
p226
S"<class 'pydal.validators.IS_EQUAL_TO'>"
p227
sS'REFRESH'
p228
g128
sS'HEAD'
p229
S"<class 'gluon.html.HEAD'>"
p230
sS'embed64'
p231
S'<function embed64>'
p232
sS'IS_LIST_OF'
p233
S"<class 'pydal.validators.IS_LIST_OF'>"
p234
sS'__name__'
p235
S"'__restricted__'"
p236
sS'EMBED'
p237
S"<class 'gluon.html.EMBED'>"
p238
sS'FORM'
p239
S"<class 'gluon.html.FORM'>"
p240
sS'H2'
p241
S"<class 'gluon.html.H2'>"
p242
sS'H3'
p243
S"<class 'gluon.html.H3'>"
p244
sS'BUTTON'
p245
S"<class 'gluon.html.BUTTON'>"
p246
sS'H1'
p247
S"<class 'gluon.html.H1'>"
p248
sS'H6'
p249
S"<class 'gluon.html.H6'>"
p250
sS'H4'
p251
S"<class 'gluon.html.H4'>"
p252
sS'H5'
p253
S"<class 'gluon.html.H5'>"
p254
sS'UL'
p255
S"<class 'gluon.html.UL'>"
p256
sS'IS_UPPER'
p257
S"<class 'pydal.validators.IS_UPPER'>"
p258
sS'xmlescape'
p259
S'<function xmlescape>'
p260
sS'IS_TIME'
p261
S"<class 'pydal.validators.IS_TIME'>"
p262
sS'OPTION'
p263
S"<class 'gluon.html.OPTION'>"
p264
sS'TITLE'
p265
S"<class 'gluon.html.TITLE'>"
p266
sS'CRYPT'
p267
S"<class 'pydal.validators.CRYPT'>"
p268
sS'IS_EMPTY_OR'
p269
S"<class 'pydal.validators.IS_EMPTY_OR'>"
p270
sS'MARKMIN'
p271
S"<class 'gluon.html.MARKMIN'>"
p272
sS'INPUT'
p273
S"<class 'gluon.html.INPUT'>"
p274
sS'STRONG'
p275
S"<class 'gluon.html.STRONG'>"
p276
sS'COL'
p277
S"<class 'gluon.html.COL'>"
p278
sS'SCRIPT'
p279
S"<class 'gluon.html.SCRIPT'>"
p280
sS'TABLE'
p281
S"<class 'gluon.html.TABLE'>"
p282
sS'IS_IPV4'
p283
S"<class 'pydal.validators.IS_IPV4'>"
p284
sS'IS_LENGTH'
p285
S"<class 'pydal.validators.IS_LENGTH'>"
p286
sS'IS_IPV6'
p287
S"<class 'pydal.validators.IS_IPV6'>"
p288
sS'XML'
p289
S"<class 'gluon.html.XML'>"
p290
sS'B'
S"<class 'gluon.html.B'>"
p291
sS'IMG'
p292
S"<class 'gluon.html.IMG'>"
p293
sS'SQLTABLE'
p294
S"<class 'gluon.sqlhtml.SQLTABLE'>"
p295
sS'IS_MATCH'
p296
S"<class 'pydal.validators.IS_MATCH'>"
p297
sS'IS_ALPHANUMERIC'
p298
S"<class 'pydal.validators.IS_ALPHANUMERIC'>"
p299
sS'SPAN'
p300
S"<class 'gluon.html.SPAN'>"
p301
sS'IS_JSON'
p302
S"<class 'pydal.validators.IS_JSON'>"
p303
sS'IS_IPADDRESS'
p304
S"<class 'pydal.validators.IS_IPADDRESS'>"
p305
sS'IS_SLUG'
p306
S"<class 'pydal.validators.IS_SLUG'>"
p307
sS'BEAUTIFY'
p308
S"<class 'gluon.html.BEAUTIFY'>"
p309
sS'META'
p310
S"<class 'gluon.html.META'>"
p311
sS'IS_DATE'
p312
S"<class 'pydal.validators.IS_DATE'>"
p313
sS'IS_EMAIL'
p314
S"<class 'pydal.validators.IS_EMAIL'>"
p315
sS'IS_NOT_EMPTY'
p316
S"<class 'pydal.validators.IS_NOT_EMPTY'>"
p317
sS'xrange'
p318
S"<type 'xrange'>"
p319
sS'TBODY'
p320
S"<class 'gluon.html.TBODY'>"
p321
sS'CAT'
p322
S"<class 'gluon.html.CAT'>"
p323
sS'Field'
p324
S"<class 'pydal.objects.Field'>"
p325
sS'IS_LIST_OF_EMAILS'
p326
S"<class 'pydal.validators.IS_LIST_OF_EMAILS'>"
p327
sS'DIV'
p328
S"<class 'gluon.html.DIV'>"
p329
sS'LEGEND'
p330
S"<class 'gluon.html.LEGEND'>"
p331
sS'to_native'
p332
S'<function to_native>'
p333
sS'COLGROUP'
p334
S"<class 'gluon.html.COLGROUP'>"
p335
sS'DAL'
p336
S"<class 'pydal.base.DAL'>"
p337
sS'ASSIGNJS'
p338
S'<function ASSIGNJS>'
p339
sS'TR'
p340
S"<class 'gluon.html.TR'>"
p341
sS'__package__'
p342
S'None'
p343
sS'IFRAME'
p344
S"<class 'gluon.html.IFRAME'>"
p345
sS'TD'
p346
S"<class 'gluon.html.TD'>"
p347
sS'PluginManager'
p348
S"<class 'gluon.tools.PluginManager'>"
p349
sS'IS_URL'
p350
S"<class 'pydal.validators.IS_URL'>"
p351
sS'A'
S"<class 'gluon.html.A'>"
p352
sS'STYLE'
p353
S"<class 'gluon.html.STYLE'>"
p354
sS'IS_DATETIME_IN_RANGE'
p355
S"<class 'pydal.validators.IS_DATETIME_IN_RANGE'>"
p356
sS'IS_IMAGE'
p357
S"<class 'pydal.validators.IS_IMAGE'>"
p358
sS'I'
S"<class 'gluon.html.I'>"
p359
sS'IS_NOT_IN_DB'
p360
S"<class 'pydal.validators.IS_NOT_IN_DB'>"
p361
sS'IS_FILE'
p362
S"<class 'pydal.validators.IS_FILE'>"
p363
sg121
S"<Storage {'body': <cStringIO.StringO object at 0...000000010A883C8>, 'view': 'appadmin/hooks.html'}>"
p364
sS'THEAD'
p365
S"<class 'gluon.html.THEAD'>"
p366
sS'ANY_OF'
p367
S"<class 'pydal.validators.ANY_OF'>"
p368
sS'IS_NULL_OR'
p369
S"<class 'pydal.validators.IS_EMPTY_OR'>"
p370
sS'IS_FLOAT_IN_RANGE'
p371
S"<class 'pydal.validators.IS_FLOAT_IN_RANGE'>"
p372
sS'IS_EXPR'
p373
S"<class 'pydal.validators.IS_EXPR'>"
p374
sS'IS_IN_SET'
p375
S"<class 'pydal.validators.IS_IN_SET'>"
p376
sS'IS_UPLOAD_FILENAME'
p377
S"<class 'pydal.validators.IS_UPLOAD_FILENAME'>"
p378
sS'IS_DECIMAL_IN_RANGE'
p379
S"<class 'pydal.validators.IS_DECIMAL_IN_RANGE'>"
p380
sS'TT'
p381
S"<class 'gluon.html.TT'>"
p382
sS'TFOOT'
p383
S"<class 'gluon.html.TFOOT'>"
p384
sssS'traceback'
p385
S'Traceback (most recent call last):\n  File "C:\\Workspace\\TempSpace\\PythonWeb\\web2py\\gluon\\restricted.py", line 219, in restricted\n    exec(ccode, environment)\n  File "C:\\Workspace\\TempSpace\\PythonWeb\\web2py\\applications\\places\\models\\1_db.py", line 28, in <module>\n    from gluon.tools import Auth, Crud, Service, PluginManager, Recaptcha, prettydate\nImportError: cannot import name Recaptcha\n'
p386
s.